target datalayout = "e-m:e-p270:32:32-p271:32:32-p272:64:64-i64:64-i128:128-f80:128-n8:16:32:64-S128"
target triple = "x86_64-pc-linux-gnu"

%struct.SDL_GPUDevice = type { ptr, ptr, ptr, ptr, ptr, ptr, ptr, ptr, ptr, ptr, ptr, ptr, ptr, ptr, ptr, ptr, ptr, ptr, ptr, ptr, ptr, ptr, ptr, ptr, ptr, ptr, ptr, ptr, ptr, ptr, ptr, ptr, ptr, ptr, ptr, ptr, ptr, ptr, ptr, ptr, ptr, ptr, ptr, ptr, ptr, ptr, ptr, ptr, ptr, ptr, ptr, ptr, ptr, ptr, ptr, ptr, ptr, ptr, ptr, ptr, ptr, ptr, ptr, ptr, ptr, ptr, ptr, ptr, ptr, ptr, ptr, ptr, ptr, ptr, ptr, ptr, ptr, ptr, ptr, ptr, ptr, ptr, ptr, ptr, ptr, i32, i8 }
%struct.SDL_GPUTextureSamplerBinding = type { ptr, ptr }
%struct.CommandBufferCommonHeader = type { ptr, %struct.RenderPass, i8, %struct.Pass, i8, %struct.Pass, i8, i8, i8 }
%struct.RenderPass = type { ptr, i8, [4 x ptr], i32, ptr }
%struct.Pass = type { ptr, i8 }

@.str.4 = private unnamed_addr constant [26 x i8] c"Parameter '%s' is invalid\00", align 1
@.str.8 = private unnamed_addr constant [103 x i8] c"generated/home/dtcxzyw/WorkSpace/Projects/compilers/llvm-opt-benchmark/bench/sdl/SDL/src/gpu/SDL_gpu.c\00", align 1
@.str.225 = private unnamed_addr constant [12 x i8] c"render_pass\00", align 1
@.str.233 = private unnamed_addr constant [25 x i8] c"texture_sampler_bindings\00", align 1
@SDL_BindGPUFragmentSamplers_REAL.sdl_assert_data = internal global { i8, [3 x i8], i32, ptr, ptr, i32, [4 x i8], ptr, ptr } { i8 0, [3 x i8] zeroinitializer, i32 0, ptr @.str.229, ptr null, i32 0, [4 x i8] zeroinitializer, ptr null, ptr null }, align 8
@__func__.SDL_BindGPUFragmentSamplers_REAL = private unnamed_addr constant [33 x i8] c"SDL_BindGPUFragmentSamplers_REAL\00", align 1
@SDL_BindGPUFragmentSamplers_REAL.sdl_assert_data.248 = internal global { i8, [3 x i8], i32, ptr, ptr, i32, [4 x i8], ptr, ptr } { i8 0, [3 x i8] zeroinitializer, i32 0, ptr @.str.236, ptr null, i32 0, [4 x i8] zeroinitializer, ptr null, ptr null }, align 8
@SDL_BindGPUFragmentSamplers_REAL.sdl_assert_data.249 = internal global { i8, [3 x i8], i32, ptr, ptr, i32, [4 x i8], ptr, ptr } { i8 0, [3 x i8] zeroinitializer, i32 0, ptr @.str.239, ptr null, i32 0, [4 x i8] zeroinitializer, ptr null, ptr null }, align 8

; Function Attrs: nounwind uwtable
define hidden void @SDL_BindGPUFragmentSamplers_REAL(ptr noundef %0, i32 noundef %1, ptr noundef %2, i32 noundef %3) #0 {
  %5 = alloca ptr, align 8
  %6 = alloca i32, align 4
  %7 = alloca ptr, align 8
  %8 = alloca i32, align 4
  %9 = alloca i32, align 4
  %10 = alloca i32, align 4
  %11 = alloca ptr, align 8
  %12 = alloca i32, align 4
  %13 = alloca i32, align 4
  %14 = alloca i32, align 4
  %15 = alloca i32, align 4
  %16 = alloca i32, align 4
  store ptr %0, ptr %5, align 8
  store i32 %1, ptr %6, align 4
  store ptr %2, ptr %7, align 8
  store i32 %3, ptr %8, align 4
  %17 = load ptr, ptr %5, align 8
  %18 = icmp eq ptr %17, null
  br i1 %18, label %19, label %21

19:                                               ; preds = %4
  %20 = call zeroext i1 (ptr, ...) @SDL_SetError_REAL(ptr noundef @.str.4, ptr noundef @.str.225)
  br label %184

21:                                               ; preds = %4
  %22 = load ptr, ptr %7, align 8
  %23 = icmp eq ptr %22, null
  br i1 %23, label %24, label %29

24:                                               ; preds = %21
  %25 = load i32, ptr %8, align 4
  %26 = icmp ugt i32 %25, 0
  br i1 %26, label %27, label %29

27:                                               ; preds = %24
  %28 = call zeroext i1 (ptr, ...) @SDL_SetError_REAL(ptr noundef @.str.4, ptr noundef @.str.233)
  br label %184

29:                                               ; preds = %24, %21
  %30 = load ptr, ptr %5, align 8
  %31 = getelementptr inbounds nuw %struct.RenderPass, ptr %30, i32 0, i32 0
  %32 = load ptr, ptr %31, align 8
  %33 = getelementptr inbounds nuw %struct.CommandBufferCommonHeader, ptr %32, i32 0, i32 0
  %34 = load ptr, ptr %33, align 8
  %35 = getelementptr inbounds nuw %struct.SDL_GPUDevice, ptr %34, i32 0, i32 86
  %36 = load i8, ptr %35, align 4, !range !5, !noundef !6
  %37 = trunc i8 %36 to i1
  br i1 %37, label %38, label %170

38:                                               ; preds = %29
  %39 = load ptr, ptr %5, align 8
  %40 = getelementptr inbounds nuw %struct.RenderPass, ptr %39, i32 0, i32 1
  %41 = load i8, ptr %40, align 8, !range !5, !noundef !6
  %42 = trunc i8 %41 to i1
  br i1 %42, label %60, label %43

43:                                               ; preds = %38
  br label %44

44:                                               ; preds = %43
  br label %45

45:                                               ; preds = %44, %56
  call void @llvm.lifetime.start.p0(i64 4, ptr %9) #6
  %46 = call i32 @SDL_ReportAssertion_REAL(ptr noundef @SDL_BindGPUFragmentSamplers_REAL.sdl_assert_data, ptr noundef @__func__.SDL_BindGPUFragmentSamplers_REAL, ptr noundef @.str.8, i32 noundef 1948)
  store i32 %46, ptr %9, align 4
  %47 = load i32, ptr %9, align 4
  %48 = icmp eq i32 %47, 0
  br i1 %48, label %49, label %50

49:                                               ; preds = %45
  store i32 4, ptr %10, align 4
  br label %56

50:                                               ; preds = %45
  %51 = load i32, ptr %9, align 4
  %52 = icmp eq i32 %51, 1
  br i1 %52, label %53, label %54

53:                                               ; preds = %50
  call void @llvm.debugtrap()
  br label %54

54:                                               ; preds = %53, %50
  br label %55

55:                                               ; preds = %54
  store i32 5, ptr %10, align 4
  br label %56

56:                                               ; preds = %55, %49
  call void @llvm.lifetime.end.p0(i64 4, ptr %9) #6
  %57 = load i32, ptr %10, align 4
  switch i32 %57, label %185 [
    i32 4, label %45
    i32 5, label %58
  ]

58:                                               ; preds = %56
  br label %59

59:                                               ; preds = %58
  br label %184

60:                                               ; preds = %38
  %61 = load ptr, ptr %5, align 8
  %62 = getelementptr inbounds nuw %struct.RenderPass, ptr %61, i32 0, i32 0
  %63 = load ptr, ptr %62, align 8
  %64 = getelementptr inbounds nuw %struct.CommandBufferCommonHeader, ptr %63, i32 0, i32 8
  %65 = load i8, ptr %64, align 2, !range !5, !noundef !6
  %66 = trunc i8 %65 to i1
  br i1 %66, label %169, label %67

67:                                               ; preds = %60
  call void @llvm.lifetime.start.p0(i64 8, ptr %11) #6
  %68 = load ptr, ptr %5, align 8
  store ptr %68, ptr %11, align 8
  call void @llvm.lifetime.start.p0(i64 4, ptr %12) #6
  store i32 0, ptr %12, align 4
  br label %69

69:                                               ; preds = %120, %67
  %70 = load i32, ptr %12, align 4
  %71 = load ptr, ptr %11, align 8
  %72 = getelementptr inbounds nuw %struct.RenderPass, ptr %71, i32 0, i32 3
  %73 = load i32, ptr %72, align 8
  %74 = icmp ult i32 %70, %73
  br i1 %74, label %76, label %75

75:                                               ; preds = %69
  store i32 6, ptr %10, align 4
  call void @llvm.lifetime.end.p0(i64 4, ptr %12) #6
  br label %123

76:                                               ; preds = %69
  call void @llvm.lifetime.start.p0(i64 4, ptr %13) #6
  store i32 0, ptr %13, align 4
  br label %77

77:                                               ; preds = %116, %76
  %78 = load i32, ptr %13, align 4
  %79 = load i32, ptr %8, align 4
  %80 = icmp ult i32 %78, %79
  br i1 %80, label %82, label %81

81:                                               ; preds = %77
  store i32 9, ptr %10, align 4
  call void @llvm.lifetime.end.p0(i64 4, ptr %13) #6
  br label %119

82:                                               ; preds = %77
  %83 = load ptr, ptr %11, align 8
  %84 = getelementptr inbounds nuw %struct.RenderPass, ptr %83, i32 0, i32 2
  %85 = load i32, ptr %12, align 4
  %86 = zext i32 %85 to i64
  %87 = getelementptr inbounds nuw [4 x ptr], ptr %84, i64 0, i64 %86
  %88 = load ptr, ptr %87, align 8
  %89 = load ptr, ptr %7, align 8
  %90 = load i32, ptr %13, align 4
  %91 = zext i32 %90 to i64
  %92 = getelementptr inbounds nuw %struct.SDL_GPUTextureSamplerBinding, ptr %89, i64 %91
  %93 = getelementptr inbounds nuw %struct.SDL_GPUTextureSamplerBinding, ptr %92, i32 0, i32 0
  %94 = load ptr, ptr %93, align 8
  %95 = icmp eq ptr %88, %94
  br i1 %95, label %96, label %115

96:                                               ; preds = %82
  br label %97

97:                                               ; preds = %96
  br label %98

98:                                               ; preds = %110, %97
  br label %99

99:                                               ; preds = %98
  call void @llvm.lifetime.start.p0(i64 4, ptr %14) #6
  %100 = call i32 @SDL_ReportAssertion_REAL(ptr noundef @SDL_BindGPUFragmentSamplers_REAL.sdl_assert_data.248, ptr noundef @__func__.SDL_BindGPUFragmentSamplers_REAL, ptr noundef @.str.8, i32 noundef 1952)
  store i32 %100, ptr %14, align 4
  %101 = load i32, ptr %14, align 4
  %102 = icmp eq i32 %101, 0
  br i1 %102, label %103, label %104

103:                                              ; preds = %99
  store i32 14, ptr %10, align 4
  br label %110

104:                                              ; preds = %99
  %105 = load i32, ptr %14, align 4
  %106 = icmp eq i32 %105, 1
  br i1 %106, label %107, label %108

107:                                              ; preds = %104
  call void @llvm.debugtrap()
  br label %108

108:                                              ; preds = %107, %104
  br label %109

109:                                              ; preds = %108
  store i32 15, ptr %10, align 4
  br label %110

110:                                              ; preds = %109, %103
  call void @llvm.lifetime.end.p0(i64 4, ptr %14) #6
  %111 = load i32, ptr %10, align 4
  switch i32 %111, label %185 [
    i32 14, label %98
    i32 15, label %112
  ]

112:                                              ; preds = %110
  br label %113

113:                                              ; preds = %112
  br label %114

114:                                              ; preds = %113
  br label %115

115:                                              ; preds = %114, %82
  br label %116

116:                                              ; preds = %115
  %117 = load i32, ptr %13, align 4
  %118 = add i32 %117, 1
  store i32 %118, ptr %13, align 4
  br label %77, !llvm.loop !13

119:                                              ; preds = %81
  br label %120

120:                                              ; preds = %119
  %121 = load i32, ptr %12, align 4
  %122 = add i32 %121, 1
  store i32 %122, ptr %12, align 4
  br label %69, !llvm.loop !14

123:                                              ; preds = %75
  call void @llvm.lifetime.start.p0(i64 4, ptr %15) #6
  store i32 0, ptr %15, align 4
  br label %124

124:                                              ; preds = %165, %123
  %125 = load i32, ptr %15, align 4
  %126 = load i32, ptr %8, align 4
  %127 = icmp ult i32 %125, %126
  br i1 %127, label %129, label %128

128:                                              ; preds = %124
  store i32 16, ptr %10, align 4
  call void @llvm.lifetime.end.p0(i64 4, ptr %15) #6
  br label %168

129:                                              ; preds = %124
  %130 = load ptr, ptr %11, align 8
  %131 = getelementptr inbounds nuw %struct.RenderPass, ptr %130, i32 0, i32 4
  %132 = load ptr, ptr %131, align 8
  %133 = icmp ne ptr %132, null
  br i1 %133, label %134, label %164

134:                                              ; preds = %129
  %135 = load ptr, ptr %11, align 8
  %136 = getelementptr inbounds nuw %struct.RenderPass, ptr %135, i32 0, i32 4
  %137 = load ptr, ptr %136, align 8
  %138 = load ptr, ptr %7, align 8
  %139 = load i32, ptr %15, align 4
  %140 = zext i32 %139 to i64
  %141 = getelementptr inbounds nuw %struct.SDL_GPUTextureSamplerBinding, ptr %138, i64 %140
  %142 = getelementptr inbounds nuw %struct.SDL_GPUTextureSamplerBinding, ptr %141, i32 0, i32 0
  %143 = load ptr, ptr %142, align 8
  %144 = icmp eq ptr %137, %143
  br i1 %144, label %145, label %164

145:                                              ; preds = %134
  br label %146

146:                                              ; preds = %145
  br label %147

147:                                              ; preds = %159, %146
  br label %148

148:                                              ; preds = %147
  call void @llvm.lifetime.start.p0(i64 4, ptr %16) #6
  %149 = call i32 @SDL_ReportAssertion_REAL(ptr noundef @SDL_BindGPUFragmentSamplers_REAL.sdl_assert_data.249, ptr noundef @__func__.SDL_BindGPUFragmentSamplers_REAL, ptr noundef @.str.8, i32 noundef 1952)
  store i32 %149, ptr %16, align 4
  %150 = load i32, ptr %16, align 4
  %151 = icmp eq i32 %150, 0
  br i1 %151, label %152, label %153

152:                                              ; preds = %148
  store i32 21, ptr %10, align 4
  br label %159

153:                                              ; preds = %148
  %154 = load i32, ptr %16, align 4
  %155 = icmp eq i32 %154, 1
  br i1 %155, label %156, label %157

156:                                              ; preds = %153
  call void @llvm.debugtrap()
  br label %157

157:                                              ; preds = %156, %153
  br label %158

158:                                              ; preds = %157
  store i32 22, ptr %10, align 4
  br label %159

159:                                              ; preds = %158, %152
  call void @llvm.lifetime.end.p0(i64 4, ptr %16) #6
  %160 = load i32, ptr %10, align 4
  switch i32 %160, label %185 [
    i32 21, label %147
    i32 22, label %161
  ]

161:                                              ; preds = %159
  br label %162

162:                                              ; preds = %161
  br label %163

163:                                              ; preds = %162
  br label %164

164:                                              ; preds = %163, %134, %129
  br label %165

165:                                              ; preds = %164
  %166 = load i32, ptr %15, align 4
  %167 = add i32 %166, 1
  store i32 %167, ptr %15, align 4
  br label %124, !llvm.loop !15

168:                                              ; preds = %128
  call void @llvm.lifetime.end.p0(i64 8, ptr %11) #6
  br label %169

169:                                              ; preds = %168, %60
  br label %170

170:                                              ; preds = %169, %29
  %171 = load ptr, ptr %5, align 8
  %172 = getelementptr inbounds nuw %struct.RenderPass, ptr %171, i32 0, i32 0
  %173 = load ptr, ptr %172, align 8
  %174 = getelementptr inbounds nuw %struct.CommandBufferCommonHeader, ptr %173, i32 0, i32 0
  %175 = load ptr, ptr %174, align 8
  %176 = getelementptr inbounds nuw %struct.SDL_GPUDevice, ptr %175, i32 0, i32 32
  %177 = load ptr, ptr %176, align 8
  %178 = load ptr, ptr %5, align 8
  %179 = getelementptr inbounds nuw %struct.RenderPass, ptr %178, i32 0, i32 0
  %180 = load ptr, ptr %179, align 8
  %181 = load i32, ptr %6, align 4
  %182 = load ptr, ptr %7, align 8
  %183 = load i32, ptr %8, align 4
  call void %177(ptr noundef %180, i32 noundef %181, ptr noundef %182, i32 noundef %183)
  br label %184

184:                                              ; preds = %170, %59, %27, %19
  ret void

185:                                              ; preds = %159, %110, %56
  unreachable
}